target datalayout = "e-m:e-p270:32:32-p271:32:32-p272:64:64-i64:64-i128:128-f80:128-n8:16:32:64-S128"
target triple = "x86_64-pc-linux-gnu"

@_ZZN4cvc58internal13preprocessing25PreprocessingPassRegistry11getInstanceEvE5ppReg = internal thread_local global ptr null, align 8
@_ZGVZN4cvc58internal13preprocessing25PreprocessingPassRegistry11getInstanceEvE5ppReg = internal thread_local global i8 0, align 1
@_ZN4cvc58internal13preprocessing25PreprocessingPassRegistryC1Ev = hidden unnamed_addr alias void (ptr), ptr @_ZN4cvc58internal13preprocessing25PreprocessingPassRegistryC2Ev

; Function Attrs: mustprogress uwtable
define hidden noundef nonnull align 8 dereferenceable(56) ptr @_ZN4cvc58internal13preprocessing25PreprocessingPassRegistry11getInstanceEv() #4 align 2 personality ptr @__gxx_personality_v0 {
  %1 = alloca ptr, align 8
  %2 = alloca i32, align 4
  %3 = load i8, ptr @_ZGVZN4cvc58internal13preprocessing25PreprocessingPassRegistry11getInstanceEvE5ppReg, align 1
  %4 = icmp eq i8 %3, 0
  br i1 %4, label %5, label %9, !prof !3

5:                                                ; preds = %0
  %6 = call noalias noundef nonnull ptr @_Znwm(i64 noundef 56) #19
  invoke void @_ZN4cvc58internal13preprocessing25PreprocessingPassRegistryC1Ev(ptr noundef nonnull align 8 dereferenceable(56) %6)
          to label %7 unwind label %12

7:                                                ; preds = %5
  %8 = call align 8 ptr @llvm.threadlocal.address.p0(ptr align 8 @_ZZN4cvc58internal13preprocessing25PreprocessingPassRegistry11getInstanceEvE5ppReg)
  store ptr %6, ptr %8, align 8, !tbaa !4
  store i8 1, ptr @_ZGVZN4cvc58internal13preprocessing25PreprocessingPassRegistry11getInstanceEvE5ppReg, align 1
  br label %9

9:                                                ; preds = %7, %0
  %10 = call align 8 ptr @llvm.threadlocal.address.p0(ptr align 8 @_ZZN4cvc58internal13preprocessing25PreprocessingPassRegistry11getInstanceEvE5ppReg)
  %11 = load ptr, ptr %10, align 8, !tbaa !4
  ret ptr %11

12:                                               ; preds = %5
  %13 = landingpad { ptr, i32 }
          cleanup
  %14 = extractvalue { ptr, i32 } %13, 0
  store ptr %14, ptr %1, align 8
  %15 = extractvalue { ptr, i32 } %13, 1
  store i32 %15, ptr %2, align 4
  call void @_ZdlPvm(ptr noundef %6, i64 noundef 56) #20
  br label %16

16:                                               ; preds = %12
  %17 = load ptr, ptr %1, align 8
  %18 = load i32, ptr %2, align 4
  %19 = insertvalue { ptr, i32 } poison, ptr %17, 0
  %20 = insertvalue { ptr, i32 } %19, i32 %18, 1
  resume { ptr, i32 } %20
}