; Function Attrs: mustprogress uwtable
define hidden noundef nonnull align 8 dereferenceable(56) ptr @_ZN4cvc58internal13preprocessing25PreprocessingPassRegistry11getInstanceEv() local_unnamed_addr #3 align 2 personality ptr @__gxx_personality_v0 {
  %.b = load i1, ptr @_ZGVZN4cvc58internal13preprocessing25PreprocessingPassRegistry11getInstanceEvE5ppReg, align 1
  br i1 %.b, label %._crit_edge, label %1, !prof !3

._crit_edge:                                      ; preds = %0
  %.pre = tail call align 8 ptr @llvm.threadlocal.address.p0(ptr align 8 @_ZZN4cvc58internal13preprocessing25PreprocessingPassRegistry11getInstanceEvE5ppReg)
  br label %5

1:                                                ; preds = %0
  %2 = tail call noalias noundef nonnull dereferenceable(56) ptr @_Znwm(i64 noundef 56) #22
  invoke void @_ZN4cvc58internal13preprocessing25PreprocessingPassRegistryC2Ev(ptr noundef nonnull align 8 dereferenceable(56) %2)
          to label %3 unwind label %7

3:                                                ; preds = %1
  %4 = tail call align 8 ptr @llvm.threadlocal.address.p0(ptr align 8 @_ZZN4cvc58internal13preprocessing25PreprocessingPassRegistry11getInstanceEvE5ppReg)
  store ptr %2, ptr %4, align 8, !tbaa !4
  store i1 true, ptr @_ZGVZN4cvc58internal13preprocessing25PreprocessingPassRegistry11getInstanceEvE5ppReg, align 1
  br label %5

5:                                                ; preds = %._crit_edge, %3
  %.pre-phi = phi ptr [ %.pre, %._crit_edge ], [ %4, %3 ]
  %6 = load ptr, ptr %.pre-phi, align 8, !tbaa !4
  ret ptr %6

7:                                                ; preds = %1
  %8 = landingpad { ptr, i32 }
          cleanup
  tail call void @_ZdlPvm(ptr noundef nonnull %2, i64 noundef 56) #23
  resume { ptr, i32 } %8
}